; Function Attrs: nofree norecurse nosync nounwind memory(readwrite, inaccessiblemem: none) uwtable
define hidden noundef i32 @lxb_encoding_encode_utf_16le(ptr nocapture noundef %0, ptr nocapture noundef %1, ptr noundef readnone %2) local_unnamed_addr #0 {
  %4 = getelementptr inbounds i8, ptr %0, i64 24
  %5 = load ptr, ptr %1, align 8
  %6 = icmp ult ptr %5, %2
  br i1 %6, label %.lr.ph.i, label %lxb_encoding_encode_utf_16.exit

.lr.ph.i:                                         ; preds = %3
  %7 = getelementptr inbounds i8, ptr %0, i64 16
  %8 = getelementptr inbounds i8, ptr %0, i64 8
  br label %.lr.ph.split.i

.lr.ph.split.i:                                   ; preds = %lxb_encoding_encode_utf_16_write.exit.i, %.lr.ph.i
  %9 = phi ptr [ %59, %lxb_encoding_encode_utf_16_write.exit.i ], [ %5, %.lr.ph.i ]
  %10 = load i32, ptr %9, align 4
  %11 = icmp ult i32 %10, 65536
  %12 = load i64, ptr %4, align 8
  %13 = load i64, ptr %7, align 8
  br i1 %11, label %14, label %28

14:                                               ; preds = %.lr.ph.split.i
  %15 = add i64 %12, 2
  %16 = icmp ugt i64 %15, %13
  br i1 %16, label %lxb_encoding_encode_utf_16.exit, label %17

17:                                               ; preds = %14
  %18 = trunc i32 %10 to i8
  %19 = load ptr, ptr %8, align 8
  %20 = add i64 %12, 1
  store i64 %20, ptr %4, align 8
  %21 = getelementptr inbounds i8, ptr %19, i64 %12
  store i8 %18, ptr %21, align 1
  %22 = lshr i32 %10, 8
  %23 = trunc i32 %22 to i8
  %24 = load ptr, ptr %8, align 8
  %25 = load i64, ptr %4, align 8
  %26 = add i64 %25, 1
  store i64 %26, ptr %4, align 8
  %27 = getelementptr inbounds i8, ptr %24, i64 %25
  store i8 %23, ptr %27, align 1
  br label %lxb_encoding_encode_utf_16_write.exit.i

28:                                               ; preds = %.lr.ph.split.i
  %29 = add i64 %12, 4
  %30 = icmp ugt i64 %29, %13
  br i1 %30, label %lxb_encoding_encode_utf_16.exit, label %31

31:                                               ; preds = %28
  %32 = add i32 %10, -65536
  %33 = lshr i32 %32, 10
  %34 = trunc i32 %33 to i8
  %35 = load ptr, ptr %8, align 8
  %36 = add i64 %12, 1
  store i64 %36, ptr %4, align 8
  %37 = getelementptr inbounds i8, ptr %35, i64 %12
  store i8 %34, ptr %37, align 1
  %38 = lshr i32 %32, 18
  %39 = trunc i32 %38 to i8
  %40 = or i8 %39, -40
  %41 = load ptr, ptr %8, align 8
  %42 = load i64, ptr %4, align 8
  %43 = add i64 %42, 1
  store i64 %43, ptr %4, align 8
  %44 = getelementptr inbounds i8, ptr %41, i64 %42
  store i8 %40, ptr %44, align 1
  %45 = trunc i32 %10 to i8
  %46 = load ptr, ptr %8, align 8
  %47 = load i64, ptr %4, align 8
  %48 = add i64 %47, 1
  store i64 %48, ptr %4, align 8
  %49 = getelementptr inbounds i8, ptr %46, i64 %47
  store i8 %45, ptr %49, align 1
  %50 = lshr i32 %10, 8
  %51 = trunc i32 %50 to i8
  %52 = and i8 %51, 3
  %53 = or disjoint i8 %52, -36
  %54 = load ptr, ptr %8, align 8
  %55 = load i64, ptr %4, align 8
  %56 = add i64 %55, 1
  store i64 %56, ptr %4, align 8
  %57 = getelementptr inbounds i8, ptr %54, i64 %55
  store i8 %53, ptr %57, align 1
  br label %lxb_encoding_encode_utf_16_write.exit.i

lxb_encoding_encode_utf_16_write.exit.i:          ; preds = %31, %17
  %58 = load ptr, ptr %1, align 8
  %59 = getelementptr inbounds i8, ptr %58, i64 4
  store ptr %59, ptr %1, align 8
  %60 = icmp ult ptr %59, %2
  br i1 %60, label %.lr.ph.split.i, label %lxb_encoding_encode_utf_16.exit

lxb_encoding_encode_utf_16.exit:                  ; preds = %14, %28, %lxb_encoding_encode_utf_16_write.exit.i, %3
  %.0.i = phi i32 [ 0, %3 ], [ 15, %14 ], [ 15, %28 ], [ 0, %lxb_encoding_encode_utf_16_write.exit.i ]
  ret i32 %.0.i
}